target datalayout = "e-m:e-p270:32:32-p271:32:32-p272:64:64-i64:64-i128:128-f80:128-n8:16:32:64-S128"
target triple = "x86_64-pc-linux-gnu"

%"class.gmx::analysismodules::(anonymous namespace)::Gyrate" = type { %"class.gmx::TrajectoryAnalysisModule", %"class.std::__cxx11::basic_string", %"class.gmx::Selection", %"class.gmx::AnalysisData", i64 }
%"class.gmx::TrajectoryAnalysisModule" = type { ptr, %"class.std::unique_ptr.2" }
%"class.std::unique_ptr.2" = type { %"struct.std::__uniq_ptr_data.3" }
%"struct.std::__uniq_ptr_data.3" = type { %"class.std::__uniq_ptr_impl.4" }
%"class.std::__uniq_ptr_impl.4" = type { %"class.std::tuple.5" }
%"class.std::tuple.5" = type { %"struct.std::_Tuple_impl.6" }
%"struct.std::_Tuple_impl.6" = type { %"struct.std::_Head_base.9" }
%"struct.std::_Head_base.9" = type { ptr }
%"class.std::__cxx11::basic_string" = type { %"struct.std::__cxx11::basic_string<char>::_Alloc_hider", i64, %union.anon }
%"struct.std::__cxx11::basic_string<char>::_Alloc_hider" = type { ptr }
%union.anon = type { i64, [8 x i8] }
%"class.gmx::Selection" = type { ptr }
%"class.gmx::AnalysisData" = type { %"class.gmx::AbstractAnalysisData", %"class.std::unique_ptr.18" }
%"class.gmx::AbstractAnalysisData" = type { ptr, %"class.std::unique_ptr.10" }
%"class.std::unique_ptr.10" = type { %"struct.std::__uniq_ptr_data.11" }
%"struct.std::__uniq_ptr_data.11" = type { %"class.std::__uniq_ptr_impl.12" }
%"class.std::__uniq_ptr_impl.12" = type { %"class.std::tuple.13" }
%"class.std::tuple.13" = type { %"struct.std::_Tuple_impl.14" }
%"struct.std::_Tuple_impl.14" = type { %"struct.std::_Head_base.17" }
%"struct.std::_Head_base.17" = type { ptr }
%"class.std::unique_ptr.18" = type { %"struct.std::__uniq_ptr_data.19" }
%"struct.std::__uniq_ptr_data.19" = type { %"class.std::__uniq_ptr_impl.20" }
%"class.std::__uniq_ptr_impl.20" = type { %"class.std::tuple.21" }
%"class.std::tuple.21" = type { %"struct.std::_Tuple_impl.22" }
%"struct.std::_Tuple_impl.22" = type { %"struct.std::_Head_base.25" }
%"struct.std::_Head_base.25" = type { ptr }

; Function Attrs: mustprogress nounwind uwtable
define internal void @_ZN3gmx15analysismodules12_GLOBAL__N_16GyrateD2Ev(ptr noundef nonnull align 8 dereferenceable(88) %0) unnamed_addr #3 align 2 {
  %2 = alloca ptr, align 8
  store ptr %0, ptr %2, align 8
  %3 = load ptr, ptr %2, align 8
  store ptr getelementptr inbounds inrange(-16, 88) ({ [13 x ptr] }, ptr @_ZTVN3gmx15analysismodules12_GLOBAL__N_16GyrateE, i32 0, i32 0, i32 2), ptr %3, align 8
  %4 = getelementptr inbounds %"class.gmx::analysismodules::(anonymous namespace)::Gyrate", ptr %3, i32 0, i32 3
  call void @_ZN3gmx12AnalysisDataD1Ev(ptr noundef nonnull align 8 dereferenceable(24) %4) #14
  %5 = getelementptr inbounds %"class.gmx::analysismodules::(anonymous namespace)::Gyrate", ptr %3, i32 0, i32 1
  call void @_ZNSt7__cxx1112basic_stringIcSt11char_traitsIcESaIcEED1Ev(ptr noundef nonnull align 8 dereferenceable(32) %5) #14
  call void @_ZN3gmx24TrajectoryAnalysisModuleD2Ev(ptr noundef nonnull align 8 dereferenceable(16) %3) #14
  ret void
}

; Function Attrs: mustprogress nounwind uwtable
define internal void @_ZN3gmx15analysismodules12_GLOBAL__N_16GyrateD0Ev(ptr noundef nonnull align 8 dereferenceable(88) %0) unnamed_addr #3 align 2 {
  %2 = alloca ptr, align 8
  store ptr %0, ptr %2, align 8
  %3 = load ptr, ptr %2, align 8
  call void @_ZN3gmx15analysismodules12_GLOBAL__N_16GyrateD2Ev(ptr noundef nonnull align 8 dereferenceable(88) %3) #14
  call void @_ZdlPv(ptr noundef %3) #15
  ret void
}